; ModuleID = '5/128.c'
source_filename = "5/128.c"
target datalayout = "e-m:e-p270:32:32-p271:32:32-p272:64:64-i64:64-f80:128-n8:16:32:64-S128"
target triple = "x86_64-pc-linux-gnu"

@.str = private unnamed_addr constant [3 x i8] c"%f\00", align 1
@.str.1 = private unnamed_addr constant [5 x i8] c"%s%s\00", align 1
@.str.2 = private unnamed_addr constant [7 x i8] c"error\0A\00", align 1
@.str.3 = private unnamed_addr constant [5 x i8] c"yes\0A\00", align 1
@.str.4 = private unnamed_addr constant [4 x i8] c"no\0A\00", align 1

; Function Attrs: noinline nounwind uwtable
define dso_local i32 @main() #0 {
  %1 = alloca i32, align 4
  %2 = alloca i32, align 4
  %3 = alloca i32, align 4
  %4 = alloca float, align 4
  %5 = alloca float, align 4
  %6 = alloca float, align 4
  %7 = alloca [501 x i8], align 16
  %8 = alloca [501 x i8], align 16
  store i32 0, i32* %1, align 4
  store i32 0, i32* %3, align 4
  store float 0.000000e+00, float* %4, align 4
  store float 0.000000e+00, float* %5, align 4
  store float 0.000000e+00, float* %6, align 4
  %9 = call i32 (i8*, ...) @__isoc99_scanf(i8* getelementptr inbounds ([3 x i8], [3 x i8]* @.str, i64 0, i64 0), float* %4)
  %10 = getelementptr inbounds [501 x i8], [501 x i8]* %7, i64 0, i64 0
  %11 = getelementptr inbounds [501 x i8], [501 x i8]* %8, i64 0, i64 0
  %12 = call i32 (i8*, ...) @__isoc99_scanf(i8* getelementptr inbounds ([5 x i8], [5 x i8]* @.str.1, i64 0, i64 0), i8* %10, i8* %11)
  %13 = getelementptr inbounds [501 x i8], [501 x i8]* %7, i64 0, i64 0
  %14 = call i64 @strlen(i8* %13) #3
  %15 = uitofp i64 %14 to float
  store float %15, float* %5, align 4
  store i32 0, i32* %2, align 4
  br label %16

16:                                               ; preds = %50, %0
  %17 = load i32, i32* %2, align 4
  %18 = sext i32 %17 to i64
  %19 = getelementptr inbounds [501 x i8], [501 x i8]* %7, i64 0, i64 %18
  %20 = load i8, i8* %19, align 1
  %21 = sext i8 %20 to i32
  %22 = icmp ne i32 %21, 0
  br i1 %22, label %23, label %53

23:                                               ; preds = %16
  %24 = load i32, i32* %2, align 4
  %25 = sext i32 %24 to i64
  %26 = getelementptr inbounds [501 x i8], [501 x i8]* %7, i64 0, i64 %25
  %27 = load i8, i8* %26, align 1
  %28 = call i32 @ex(i8 signext %27)
  %29 = load i32, i32* %3, align 4
  %30 = add nsw i32 %29, %28
  store i32 %30, i32* %3, align 4
  %31 = load i32, i32* %2, align 4
  %32 = sext i32 %31 to i64
  %33 = getelementptr inbounds [501 x i8], [501 x i8]* %8, i64 0, i64 %32
  %34 = load i8, i8* %33, align 1
  %35 = call i32 @ex(i8 signext %34)
  %36 = load i32, i32* %3, align 4
  %37 = add nsw i32 %36, %35
  store i32 %37, i32* %3, align 4
  %38 = load i32, i32* %2, align 4
  %39 = sext i32 %38 to i64
  %40 = getelementptr inbounds [501 x i8], [501 x i8]* %7, i64 0, i64 %39
  %41 = load i8, i8* %40, align 1
  %42 = load i32, i32* %2, align 4
  %43 = sext i32 %42 to i64
  %44 = getelementptr inbounds [501 x i8], [501 x i8]* %8, i64 0, i64 %43
  %45 = load i8, i8* %44, align 1
  %46 = call i32 @cmp(i8 signext %41, i8 signext %45)
  %47 = sitofp i32 %46 to float
  %48 = load float, float* %6, align 4
  %49 = fadd float %48, %47
  store float %49, float* %6, align 4
  br label %50

50:                                               ; preds = %23
  %51 = load i32, i32* %2, align 4
  %52 = add nsw i32 %51, 1
  store i32 %52, i32* %2, align 4
  br label %16

53:                                               ; preds = %16
  %54 = load i32, i32* %3, align 4
  %55 = icmp ne i32 %54, 0
  br i1 %55, label %56, label %58

56:                                               ; preds = %53
  %57 = call i32 (i8*, ...) @printf(i8* getelementptr inbounds ([7 x i8], [7 x i8]* @.str.2, i64 0, i64 0))
  store i32 0, i32* %1, align 4
  br label %69

58:                                               ; preds = %53
  %59 = load float, float* %6, align 4
  %60 = load float, float* %5, align 4
  %61 = fdiv float %59, %60
  %62 = load float, float* %4, align 4
  %63 = fcmp oge float %61, %62
  br i1 %63, label %64, label %66

64:                                               ; preds = %58
  %65 = call i32 (i8*, ...) @printf(i8* getelementptr inbounds ([5 x i8], [5 x i8]* @.str.3, i64 0, i64 0))
  br label %68

66:                                               ; preds = %58
  %67 = call i32 (i8*, ...) @printf(i8* getelementptr inbounds ([4 x i8], [4 x i8]* @.str.4, i64 0, i64 0))
  br label %68

68:                                               ; preds = %66, %64
  store i32 0, i32* %1, align 4
  br label %69

69:                                               ; preds = %68, %56
  %70 = load i32, i32* %1, align 4
  ret i32 %70
}

declare dso_local i32 @__isoc99_scanf(i8*, ...) #1

; Function Attrs: nounwind readonly
declare dso_local i64 @strlen(i8*) #2

; Function Attrs: noinline nounwind uwtable
define dso_local i32 @ex(i8 signext %0) #0 {
  %2 = alloca i32, align 4
  %3 = alloca i8, align 1
  store i8 %0, i8* %3, align 1
  %4 = load i8, i8* %3, align 1
  %5 = sext i8 %4 to i32
  switch i32 %5, label %10 [
    i32 65, label %6
    i32 84, label %7
    i32 67, label %8
    i32 71, label %9
  ]

6:                                                ; preds = %1
  br label %7

7:                                                ; preds = %1, %6
  br label %8

8:                                                ; preds = %1, %7
  br label %9

9:                                                ; preds = %1, %8
  store i32 0, i32* %2, align 4
  br label %11

10:                                               ; preds = %1
  store i32 1, i32* %2, align 4
  br label %11

11:                                               ; preds = %10, %9
  %12 = load i32, i32* %2, align 4
  ret i32 %12
}

; Function Attrs: noinline nounwind uwtable
define dso_local i32 @cmp(i8 signext %0, i8 signext %1) #0 {
  %3 = alloca i32, align 4
  %4 = alloca i8, align 1
  %5 = alloca i8, align 1
  store i8 %0, i8* %4, align 1
  store i8 %1, i8* %5, align 1
  %6 = load i8, i8* %4, align 1
  %7 = sext i8 %6 to i32
  %8 = load i8, i8* %5, align 1
  %9 = sext i8 %8 to i32
  %10 = icmp eq i32 %7, %9
  br i1 %10, label %11, label %12

11:                                               ; preds = %2
  store i32 1, i32* %3, align 4
  br label %13

12:                                               ; preds = %2
  store i32 0, i32* %3, align 4
  br label %13

13:                                               ; preds = %12, %11
  %14 = load i32, i32* %3, align 4
  ret i32 %14
}

declare dso_local i32 @printf(i8*, ...) #1


!llvm.module.flags = !{!0}
!llvm.ident = !{!1}

!0 = !{i32 1, !"wchar_size", i32 4}
!1 = !{!"clang version 10.0.0-4ubuntu1 "}
